target datalayout = "e-m:e-p270:32:32-p271:32:32-p272:64:64-i64:64-i128:128-f80:128-n8:16:32:64-S128"
target triple = "x86_64-pc-linux-gnu"

%struct._value_string_ext = type { ptr, i32, i32, ptr, ptr }

@.str.752 = private unnamed_addr constant [15 x i8] c"not valid (%d)\00", align 1
@acn_blob_dimmer_properties1_field_name_ext = internal global %struct._value_string_ext { ptr @_try_val_to_str_ext_init, i32 0, i32 48, ptr @acn_blob_dimmer_properties1_field_name, ptr @.str.840 }, align 8
@acn_blob_dimmer_load_properties1_field_name_ext = internal global %struct._value_string_ext { ptr @_try_val_to_str_ext_init, i32 0, i32 72, ptr @acn_blob_dimmer_load_properties1_field_name, ptr @.str.879 }, align 8
@acn_blob_dimmer_rack_properties1_field_name_ext = internal global %struct._value_string_ext { ptr @_try_val_to_str_ext_init, i32 0, i32 46, ptr @acn_blob_dimmer_rack_properties1_field_name, ptr @.str.942 }, align 8
@acn_blob_dimmer_rack_status_properties1_field_name_ext = internal global %struct._value_string_ext { ptr @_try_val_to_str_ext_init, i32 0, i32 35, ptr @acn_blob_dimmer_rack_status_properties1_field_name, ptr @.str.979 }, align 8
@acn_blob_dimmer_status_properties1_field_name_ext = internal global %struct._value_string_ext { ptr @_try_val_to_str_ext_init, i32 0, i32 24, ptr @acn_blob_dimmer_status_properties1_field_name, ptr @.str.1005 }, align 8
@acn_blob_dimmer_properties2_field_name_ext = internal global %struct._value_string_ext { ptr @_try_val_to_str_ext_init, i32 0, i32 52, ptr @acn_blob_dimmer_properties2_field_name, ptr @.str.1038 }, align 8
@acn_blob_dimmer_load_properties2_field_name_ext = internal global %struct._value_string_ext { ptr @_try_val_to_str_ext_init, i32 0, i32 75, ptr @acn_blob_dimmer_load_properties2_field_name, ptr @.str.1047 }, align 8
@acn_blob_dimmer_rack_properties2_field_name_ext = internal global %struct._value_string_ext { ptr @_try_val_to_str_ext_init, i32 0, i32 55, ptr @acn_blob_dimmer_rack_properties2_field_name, ptr @.str.1052 }, align 8
@acn_blob_dimmer_rack_status_properties2_field_name_ext = internal global %struct._value_string_ext { ptr @_try_val_to_str_ext_init, i32 0, i32 100, ptr @acn_blob_dimmer_rack_status_properties2_field_name, ptr @.str.1063 }, align 8
@acn_blob_dimmer_status_properties2_field_name_ext = internal global %struct._value_string_ext { ptr @_try_val_to_str_ext_init, i32 0, i32 25, ptr @acn_blob_dimmer_status_properties2_field_name, ptr @.str.1130 }, align 8
@acn_blob_preset_properties_field_name_ext = internal global %struct._value_string_ext { ptr @_try_val_to_str_ext_init, i32 0, i32 209, ptr @acn_blob_preset_properties_field_name, ptr @.str.1172 }, align 8
@acn_blob_sequence_step_properties_field_name_ext = internal global %struct._value_string_ext { ptr @_try_val_to_str_ext_init, i32 0, i32 207, ptr @acn_blob_sequence_step_properties_field_name, ptr @.str.1392 }, align 8
@.str.786 = private unnamed_addr constant [14 x i8] c"Unknown field\00", align 1

; Function Attrs: null_pointer_is_valid sspstrong uwtable
define internal ptr @get_field_name(i8 noundef zeroext %0, i16 noundef zeroext %1) #0 {
  %3 = alloca i8, align 1
  %4 = alloca i16, align 2
  %5 = alloca i16, align 2
  %6 = alloca ptr, align 8
  store i8 %0, ptr %3, align 1
  store i16 %1, ptr %4, align 2
  call void @llvm.lifetime.start.p0(i64 2, ptr %5) #7
  call void @llvm.lifetime.start.p0(i64 8, ptr %6) #7
  %7 = load i8, ptr %3, align 1
  %8 = zext i8 %7 to i32
  switch i32 %8, label %158 [
    i32 1, label %9
    i32 2, label %9
    i32 3, label %13
    i32 4, label %17
    i32 5, label %21
    i32 6, label %25
    i32 7, label %29
    i32 8, label %33
    i32 9, label %37
    i32 10, label %41
    i32 11, label %45
    i32 12, label %49
    i32 13, label %53
    i32 14, label %57
    i32 15, label %61
    i32 16, label %65
    i32 17, label %69
    i32 18, label %73
    i32 19, label %77
    i32 20, label %81
    i32 21, label %85
    i32 22, label %89
    i32 23, label %93
    i32 24, label %97
    i32 25, label %101
    i32 26, label %105
    i32 27, label %115
    i32 28, label %119
    i32 29, label %123
    i32 250, label %138
    i32 30, label %142
    i32 31, label %146
    i32 32, label %150
    i32 33, label %154
  ]

9:                                                ; preds = %2, %2
  %10 = load i16, ptr %4, align 2
  %11 = zext i16 %10 to i32
  %12 = call ptr @val_to_str(i32 noundef %11, ptr noundef @acn_blob_ip_field_name, ptr noundef @.str.752)
  store ptr %12, ptr %6, align 8
  br label %159

13:                                               ; preds = %2
  %14 = load i16, ptr %4, align 2
  %15 = zext i16 %14 to i32
  %16 = call ptr @val_to_str(i32 noundef %15, ptr noundef @acn_blob_error1_field_name, ptr noundef @.str.752)
  store ptr %16, ptr %6, align 8
  br label %159

17:                                               ; preds = %2
  %18 = load i16, ptr %4, align 2
  %19 = zext i16 %18 to i32
  %20 = call ptr @val_to_str(i32 noundef %19, ptr noundef @acn_blob_error2_field_name, ptr noundef @.str.752)
  store ptr %20, ptr %6, align 8
  br label %159

21:                                               ; preds = %2
  %22 = load i16, ptr %4, align 2
  %23 = zext i16 %22 to i32
  %24 = call ptr @val_to_str(i32 noundef %23, ptr noundef @acn_blob_metadata_field_name, ptr noundef @.str.752)
  store ptr %24, ptr %6, align 8
  br label %159

25:                                               ; preds = %2
  %26 = load i16, ptr %4, align 2
  %27 = zext i16 %26 to i32
  %28 = call ptr @val_to_str(i32 noundef %27, ptr noundef @acn_blob_metadata_devices_field_name, ptr noundef @.str.752)
  store ptr %28, ptr %6, align 8
  br label %159

29:                                               ; preds = %2
  %30 = load i16, ptr %4, align 2
  %31 = zext i16 %30 to i32
  %32 = call ptr @val_to_str(i32 noundef %31, ptr noundef @acn_blob_metadata_types_field_name, ptr noundef @.str.752)
  store ptr %32, ptr %6, align 8
  br label %159

33:                                               ; preds = %2
  %34 = load i16, ptr %4, align 2
  %35 = zext i16 %34 to i32
  %36 = call ptr @val_to_str(i32 noundef %35, ptr noundef @acn_blob_time1_field_name, ptr noundef @.str.752)
  store ptr %36, ptr %6, align 8
  br label %159

37:                                               ; preds = %2
  %38 = load i16, ptr %4, align 2
  %39 = zext i16 %38 to i32
  %40 = call ptr @val_to_str_ext(i32 noundef %39, ptr noundef @acn_blob_dimmer_properties1_field_name_ext, ptr noundef @.str.752)
  store ptr %40, ptr %6, align 8
  br label %159

41:                                               ; preds = %2
  %42 = load i16, ptr %4, align 2
  %43 = zext i16 %42 to i32
  %44 = call ptr @val_to_str_ext(i32 noundef %43, ptr noundef @acn_blob_dimmer_load_properties1_field_name_ext, ptr noundef @.str.752)
  store ptr %44, ptr %6, align 8
  br label %159

45:                                               ; preds = %2
  %46 = load i16, ptr %4, align 2
  %47 = zext i16 %46 to i32
  %48 = call ptr @val_to_str_ext(i32 noundef %47, ptr noundef @acn_blob_dimmer_rack_properties1_field_name_ext, ptr noundef @.str.752)
  store ptr %48, ptr %6, align 8
  br label %159

49:                                               ; preds = %2
  %50 = load i16, ptr %4, align 2
  %51 = zext i16 %50 to i32
  %52 = call ptr @val_to_str_ext(i32 noundef %51, ptr noundef @acn_blob_dimmer_rack_status_properties1_field_name_ext, ptr noundef @.str.752)
  store ptr %52, ptr %6, align 8
  br label %159

53:                                               ; preds = %2
  %54 = load i16, ptr %4, align 2
  %55 = zext i16 %54 to i32
  %56 = call ptr @val_to_str_ext(i32 noundef %55, ptr noundef @acn_blob_dimmer_status_properties1_field_name_ext, ptr noundef @.str.752)
  store ptr %56, ptr %6, align 8
  br label %159

57:                                               ; preds = %2
  %58 = load i16, ptr %4, align 2
  %59 = zext i16 %58 to i32
  %60 = call ptr @val_to_str(i32 noundef %59, ptr noundef @acn_blob_set_levels_operation_field_name, ptr noundef @.str.752)
  store ptr %60, ptr %6, align 8
  br label %159

61:                                               ; preds = %2
  %62 = load i16, ptr %4, align 2
  %63 = zext i16 %62 to i32
  %64 = call ptr @val_to_str(i32 noundef %63, ptr noundef @acn_blob_preset_operation_field_name, ptr noundef @.str.752)
  store ptr %64, ptr %6, align 8
  br label %159

65:                                               ; preds = %2
  %66 = load i16, ptr %4, align 2
  %67 = zext i16 %66 to i32
  %68 = call ptr @val_to_str(i32 noundef %67, ptr noundef @acn_blob_advanced_features_operation_field_name, ptr noundef @.str.752)
  store ptr %68, ptr %6, align 8
  br label %159

69:                                               ; preds = %2
  %70 = load i16, ptr %4, align 2
  %71 = zext i16 %70 to i32
  %72 = call ptr @val_to_str(i32 noundef %71, ptr noundef @acn_blob_direct_control_operation_field_name, ptr noundef @.str.752)
  store ptr %72, ptr %6, align 8
  br label %159

73:                                               ; preds = %2
  %74 = load i16, ptr %4, align 2
  %75 = zext i16 %74 to i32
  %76 = call ptr @val_to_str(i32 noundef %75, ptr noundef @acn_blob_generate_config_operation_field_name, ptr noundef @.str.752)
  store ptr %76, ptr %6, align 8
  br label %159

77:                                               ; preds = %2
  %78 = load i16, ptr %4, align 2
  %79 = zext i16 %78 to i32
  %80 = call ptr @val_to_str(i32 noundef %79, ptr noundef @acn_blob_error3_field_name, ptr noundef @.str.752)
  store ptr %80, ptr %6, align 8
  br label %159

81:                                               ; preds = %2
  %82 = load i16, ptr %4, align 2
  %83 = zext i16 %82 to i32
  %84 = call ptr @val_to_str_ext(i32 noundef %83, ptr noundef @acn_blob_dimmer_properties2_field_name_ext, ptr noundef @.str.752)
  store ptr %84, ptr %6, align 8
  br label %159

85:                                               ; preds = %2
  %86 = load i16, ptr %4, align 2
  %87 = zext i16 %86 to i32
  %88 = call ptr @val_to_str_ext(i32 noundef %87, ptr noundef @acn_blob_dimmer_load_properties2_field_name_ext, ptr noundef @.str.752)
  store ptr %88, ptr %6, align 8
  br label %159

89:                                               ; preds = %2
  %90 = load i16, ptr %4, align 2
  %91 = zext i16 %90 to i32
  %92 = call ptr @val_to_str_ext(i32 noundef %91, ptr noundef @acn_blob_dimmer_rack_properties2_field_name_ext, ptr noundef @.str.752)
  store ptr %92, ptr %6, align 8
  br label %159

93:                                               ; preds = %2
  %94 = load i16, ptr %4, align 2
  %95 = zext i16 %94 to i32
  %96 = call ptr @val_to_str_ext(i32 noundef %95, ptr noundef @acn_blob_dimmer_rack_status_properties2_field_name_ext, ptr noundef @.str.752)
  store ptr %96, ptr %6, align 8
  br label %159

97:                                               ; preds = %2
  %98 = load i16, ptr %4, align 2
  %99 = zext i16 %98 to i32
  %100 = call ptr @val_to_str_ext(i32 noundef %99, ptr noundef @acn_blob_dimmer_status_properties2_field_name_ext, ptr noundef @.str.752)
  store ptr %100, ptr %6, align 8
  br label %159

101:                                              ; preds = %2
  %102 = load i16, ptr %4, align 2
  %103 = zext i16 %102 to i32
  %104 = call ptr @val_to_str(i32 noundef %103, ptr noundef @acn_blob_time2_field_name, ptr noundef @.str.752)
  store ptr %104, ptr %6, align 8
  br label %159

105:                                              ; preds = %2
  %106 = load i16, ptr %4, align 2
  store i16 %106, ptr %5, align 2
  %107 = load i16, ptr %5, align 2
  %108 = zext i16 %107 to i32
  %109 = icmp sgt i32 %108, 3
  br i1 %109, label %110, label %111

110:                                              ; preds = %105
  store i16 4, ptr %5, align 2
  br label %111

111:                                              ; preds = %110, %105
  %112 = load i16, ptr %5, align 2
  %113 = zext i16 %112 to i32
  %114 = call ptr @val_to_str(i32 noundef %113, ptr noundef @acn_blob_rpc_field_name, ptr noundef @.str.752)
  store ptr %114, ptr %6, align 8
  br label %159

115:                                              ; preds = %2
  %116 = load i16, ptr %4, align 2
  %117 = zext i16 %116 to i32
  %118 = call ptr @val_to_str(i32 noundef %117, ptr noundef @acn_blob_dhcp_config_subnet_field_name, ptr noundef @.str.752)
  store ptr %118, ptr %6, align 8
  br label %159

119:                                              ; preds = %2
  %120 = load i16, ptr %4, align 2
  %121 = zext i16 %120 to i32
  %122 = call ptr @val_to_str(i32 noundef %121, ptr noundef @acn_blob_dhcp_config_static_route_field_name, ptr noundef @.str.752)
  store ptr %122, ptr %6, align 8
  br label %159

123:                                              ; preds = %2
  %124 = load i16, ptr %4, align 2
  store i16 %124, ptr %5, align 2
  %125 = load i16, ptr %5, align 2
  %126 = zext i16 %125 to i32
  %127 = icmp sgt i32 %126, 3
  br i1 %127, label %128, label %134

128:                                              ; preds = %123
  %129 = load i16, ptr %4, align 2
  %130 = zext i16 %129 to i32
  %131 = srem i32 %130, 4
  %132 = add i32 %131, 4
  %133 = trunc i32 %132 to i16
  store i16 %133, ptr %5, align 2
  br label %134

134:                                              ; preds = %128, %123
  %135 = load i16, ptr %5, align 2
  %136 = zext i16 %135 to i32
  %137 = call ptr @val_to_str(i32 noundef %136, ptr noundef @acn_blob_energy_management_field_name, ptr noundef @.str.752)
  store ptr %137, ptr %6, align 8
  br label %159

138:                                              ; preds = %2
  %139 = load i16, ptr %4, align 2
  %140 = zext i16 %139 to i32
  %141 = call ptr @val_to_str_ext(i32 noundef %140, ptr noundef @acn_blob_preset_properties_field_name_ext, ptr noundef @.str.752)
  store ptr %141, ptr %6, align 8
  br label %159

142:                                              ; preds = %2
  %143 = load i16, ptr %4, align 2
  %144 = zext i16 %143 to i32
  %145 = call ptr @val_to_str(i32 noundef %144, ptr noundef @acn_blob_time3_field_name, ptr noundef @.str.752)
  store ptr %145, ptr %6, align 8
  br label %159

146:                                              ; preds = %2
  %147 = load i16, ptr %4, align 2
  %148 = zext i16 %147 to i32
  %149 = call ptr @val_to_str(i32 noundef %148, ptr noundef @acn_blob_energy_cost_field_name, ptr noundef @.str.752)
  store ptr %149, ptr %6, align 8
  br label %159

150:                                              ; preds = %2
  %151 = load i16, ptr %4, align 2
  %152 = zext i16 %151 to i32
  %153 = call ptr @val_to_str(i32 noundef %152, ptr noundef @acn_blob_sequence_operation_field_name, ptr noundef @.str.752)
  store ptr %153, ptr %6, align 8
  br label %159

154:                                              ; preds = %2
  %155 = load i16, ptr %4, align 2
  %156 = zext i16 %155 to i32
  %157 = call ptr @val_to_str_ext(i32 noundef %156, ptr noundef @acn_blob_sequence_step_properties_field_name_ext, ptr noundef @.str.752)
  store ptr %157, ptr %6, align 8
  br label %159

158:                                              ; preds = %2
  store ptr @.str.786, ptr %6, align 8
  br label %159

159:                                              ; preds = %158, %154, %150, %146, %142, %138, %134, %119, %115, %111, %101, %97, %93, %89, %85, %81, %77, %73, %69, %65, %61, %57, %53, %49, %45, %41, %37, %33, %29, %25, %21, %17, %13, %9
  %160 = load ptr, ptr %6, align 8
  call void @llvm.lifetime.end.p0(i64 8, ptr %6) #7
  call void @llvm.lifetime.end.p0(i64 2, ptr %5) #7
  ret ptr %160
}