; Function Attrs: null_pointer_is_valid sspstrong uwtable
define internal fastcc ptr @get_field_name(i8 noundef zeroext %0, i16 noundef zeroext %1) unnamed_addr #0 {
  switch i8 %0, label %105 [
    i8 1, label %3
    i8 2, label %3
    i8 3, label %6
    i8 4, label %9
    i8 5, label %12
    i8 6, label %15
    i8 7, label %18
    i8 8, label %21
    i8 9, label %24
    i8 10, label %27
    i8 11, label %30
    i8 12, label %33
    i8 13, label %36
    i8 14, label %39
    i8 15, label %42
    i8 16, label %45
    i8 17, label %48
    i8 18, label %51
    i8 19, label %54
    i8 20, label %57
    i8 21, label %60
    i8 22, label %63
    i8 23, label %66
    i8 24, label %69
    i8 25, label %72
    i8 26, label %75
    i8 27, label %78
    i8 28, label %81
    i8 29, label %84
    i8 -6, label %90
    i8 30, label %93
    i8 31, label %96
    i8 32, label %99
    i8 33, label %102
  ]

3:                                                ; preds = %2, %2
  %4 = zext i16 %1 to i32
  %5 = tail call ptr @val_to_str(i32 noundef %4, ptr noundef nonnull @acn_blob_ip_field_name, ptr noundef nonnull @.str.752)
  br label %105

6:                                                ; preds = %2
  %7 = zext i16 %1 to i32
  %8 = tail call ptr @val_to_str(i32 noundef %7, ptr noundef nonnull @acn_blob_error1_field_name, ptr noundef nonnull @.str.752)
  br label %105

9:                                                ; preds = %2
  %10 = zext i16 %1 to i32
  %11 = tail call ptr @val_to_str(i32 noundef %10, ptr noundef nonnull @acn_blob_error2_field_name, ptr noundef nonnull @.str.752)
  br label %105

12:                                               ; preds = %2
  %13 = zext i16 %1 to i32
  %14 = tail call ptr @val_to_str(i32 noundef %13, ptr noundef nonnull @acn_blob_metadata_field_name, ptr noundef nonnull @.str.752)
  br label %105

15:                                               ; preds = %2
  %16 = zext i16 %1 to i32
  %17 = tail call ptr @val_to_str(i32 noundef %16, ptr noundef nonnull @acn_blob_metadata_devices_field_name, ptr noundef nonnull @.str.752)
  br label %105

18:                                               ; preds = %2
  %19 = zext i16 %1 to i32
  %20 = tail call ptr @val_to_str(i32 noundef %19, ptr noundef nonnull @acn_blob_metadata_types_field_name, ptr noundef nonnull @.str.752)
  br label %105

21:                                               ; preds = %2
  %22 = zext i16 %1 to i32
  %23 = tail call ptr @val_to_str(i32 noundef %22, ptr noundef nonnull @acn_blob_time1_field_name, ptr noundef nonnull @.str.752)
  br label %105

24:                                               ; preds = %2
  %25 = zext i16 %1 to i32
  %26 = tail call ptr @val_to_str_ext(i32 noundef %25, ptr noundef nonnull @acn_blob_dimmer_properties1_field_name_ext, ptr noundef nonnull @.str.752)
  br label %105

27:                                               ; preds = %2
  %28 = zext i16 %1 to i32
  %29 = tail call ptr @val_to_str_ext(i32 noundef %28, ptr noundef nonnull @acn_blob_dimmer_load_properties1_field_name_ext, ptr noundef nonnull @.str.752)
  br label %105

30:                                               ; preds = %2
  %31 = zext i16 %1 to i32
  %32 = tail call ptr @val_to_str_ext(i32 noundef %31, ptr noundef nonnull @acn_blob_dimmer_rack_properties1_field_name_ext, ptr noundef nonnull @.str.752)
  br label %105

33:                                               ; preds = %2
  %34 = zext i16 %1 to i32
  %35 = tail call ptr @val_to_str_ext(i32 noundef %34, ptr noundef nonnull @acn_blob_dimmer_rack_status_properties1_field_name_ext, ptr noundef nonnull @.str.752)
  br label %105

36:                                               ; preds = %2
  %37 = zext i16 %1 to i32
  %38 = tail call ptr @val_to_str_ext(i32 noundef %37, ptr noundef nonnull @acn_blob_dimmer_status_properties1_field_name_ext, ptr noundef nonnull @.str.752)
  br label %105

39:                                               ; preds = %2
  %40 = zext i16 %1 to i32
  %41 = tail call ptr @val_to_str(i32 noundef %40, ptr noundef nonnull @acn_blob_set_levels_operation_field_name, ptr noundef nonnull @.str.752)
  br label %105

42:                                               ; preds = %2
  %43 = zext i16 %1 to i32
  %44 = tail call ptr @val_to_str(i32 noundef %43, ptr noundef nonnull @acn_blob_preset_operation_field_name, ptr noundef nonnull @.str.752)
  br label %105

45:                                               ; preds = %2
  %46 = zext i16 %1 to i32
  %47 = tail call ptr @val_to_str(i32 noundef %46, ptr noundef nonnull @acn_blob_advanced_features_operation_field_name, ptr noundef nonnull @.str.752)
  br label %105

48:                                               ; preds = %2
  %49 = zext i16 %1 to i32
  %50 = tail call ptr @val_to_str(i32 noundef %49, ptr noundef nonnull @acn_blob_direct_control_operation_field_name, ptr noundef nonnull @.str.752)
  br label %105

51:                                               ; preds = %2
  %52 = zext i16 %1 to i32
  %53 = tail call ptr @val_to_str(i32 noundef %52, ptr noundef nonnull @acn_blob_generate_config_operation_field_name, ptr noundef nonnull @.str.752)
  br label %105

54:                                               ; preds = %2
  %55 = zext i16 %1 to i32
  %56 = tail call ptr @val_to_str(i32 noundef %55, ptr noundef nonnull @acn_blob_error3_field_name, ptr noundef nonnull @.str.752)
  br label %105

57:                                               ; preds = %2
  %58 = zext i16 %1 to i32
  %59 = tail call ptr @val_to_str_ext(i32 noundef %58, ptr noundef nonnull @acn_blob_dimmer_properties2_field_name_ext, ptr noundef nonnull @.str.752)
  br label %105

60:                                               ; preds = %2
  %61 = zext i16 %1 to i32
  %62 = tail call ptr @val_to_str_ext(i32 noundef %61, ptr noundef nonnull @acn_blob_dimmer_load_properties2_field_name_ext, ptr noundef nonnull @.str.752)
  br label %105

63:                                               ; preds = %2
  %64 = zext i16 %1 to i32
  %65 = tail call ptr @val_to_str_ext(i32 noundef %64, ptr noundef nonnull @acn_blob_dimmer_rack_properties2_field_name_ext, ptr noundef nonnull @.str.752)
  br label %105

66:                                               ; preds = %2
  %67 = zext i16 %1 to i32
  %68 = tail call ptr @val_to_str_ext(i32 noundef %67, ptr noundef nonnull @acn_blob_dimmer_rack_status_properties2_field_name_ext, ptr noundef nonnull @.str.752)
  br label %105

69:                                               ; preds = %2
  %70 = zext i16 %1 to i32
  %71 = tail call ptr @val_to_str_ext(i32 noundef %70, ptr noundef nonnull @acn_blob_dimmer_status_properties2_field_name_ext, ptr noundef nonnull @.str.752)
  br label %105

72:                                               ; preds = %2
  %73 = zext i16 %1 to i32
  %74 = tail call ptr @val_to_str(i32 noundef %73, ptr noundef nonnull @acn_blob_time2_field_name, ptr noundef nonnull @.str.752)
  br label %105

75:                                               ; preds = %2
  %spec.store.select = tail call i16 @llvm.umin.i16(i16 %1, i16 4)
  %76 = zext nneg i16 %spec.store.select to i32
  %77 = tail call ptr @val_to_str(i32 noundef %76, ptr noundef nonnull @acn_blob_rpc_field_name, ptr noundef nonnull @.str.752)
  br label %105

78:                                               ; preds = %2
  %79 = zext i16 %1 to i32
  %80 = tail call ptr @val_to_str(i32 noundef %79, ptr noundef nonnull @acn_blob_dhcp_config_subnet_field_name, ptr noundef nonnull @.str.752)
  br label %105

81:                                               ; preds = %2
  %82 = zext i16 %1 to i32
  %83 = tail call ptr @val_to_str(i32 noundef %82, ptr noundef nonnull @acn_blob_dhcp_config_static_route_field_name, ptr noundef nonnull @.str.752)
  br label %105

84:                                               ; preds = %2
  %85 = icmp ugt i16 %1, 3
  %86 = and i16 %1, 3
  %87 = or disjoint i16 %86, 4
  %.039 = select i1 %85, i16 %87, i16 %1
  %88 = zext nneg i16 %.039 to i32
  %89 = tail call ptr @val_to_str(i32 noundef %88, ptr noundef nonnull @acn_blob_energy_management_field_name, ptr noundef nonnull @.str.752)
  br label %105

90:                                               ; preds = %2
  %91 = zext i16 %1 to i32
  %92 = tail call ptr @val_to_str_ext(i32 noundef %91, ptr noundef nonnull @acn_blob_preset_properties_field_name_ext, ptr noundef nonnull @.str.752)
  br label %105

93:                                               ; preds = %2
  %94 = zext i16 %1 to i32
  %95 = tail call ptr @val_to_str(i32 noundef %94, ptr noundef nonnull @acn_blob_time3_field_name, ptr noundef nonnull @.str.752)
  br label %105

96:                                               ; preds = %2
  %97 = zext i16 %1 to i32
  %98 = tail call ptr @val_to_str(i32 noundef %97, ptr noundef nonnull @acn_blob_energy_cost_field_name, ptr noundef nonnull @.str.752)
  br label %105

99:                                               ; preds = %2
  %100 = zext i16 %1 to i32
  %101 = tail call ptr @val_to_str(i32 noundef %100, ptr noundef nonnull @acn_blob_sequence_operation_field_name, ptr noundef nonnull @.str.752)
  br label %105

102:                                              ; preds = %2
  %103 = zext i16 %1 to i32
  %104 = tail call ptr @val_to_str_ext(i32 noundef %103, ptr noundef nonnull @acn_blob_sequence_step_properties_field_name_ext, ptr noundef nonnull @.str.752)
  br label %105

105:                                              ; preds = %2, %102, %99, %96, %93, %90, %84, %81, %78, %75, %72, %69, %66, %63, %60, %57, %54, %51, %48, %45, %42, %39, %36, %33, %30, %27, %24, %21, %18, %15, %12, %9, %6, %3
  %.0 = phi ptr [ %104, %102 ], [ %101, %99 ], [ %98, %96 ], [ %95, %93 ], [ %92, %90 ], [ %89, %84 ], [ %83, %81 ], [ %80, %78 ], [ %77, %75 ], [ %74, %72 ], [ %71, %69 ], [ %68, %66 ], [ %65, %63 ], [ %62, %60 ], [ %59, %57 ], [ %56, %54 ], [ %53, %51 ], [ %50, %48 ], [ %47, %45 ], [ %44, %42 ], [ %41, %39 ], [ %38, %36 ], [ %35, %33 ], [ %32, %30 ], [ %29, %27 ], [ %26, %24 ], [ %23, %21 ], [ %20, %18 ], [ %17, %15 ], [ %14, %12 ], [ %11, %9 ], [ %8, %6 ], [ %5, %3 ], [ @.str.786, %2 ]
  ret ptr %.0
}